target datalayout = "e-m:e-p270:32:32-p271:32:32-p272:64:64-i64:64-i128:128-f80:128-n8:16:32:64-S128"
target triple = "x86_64-unknown-linux-gnu"

; Function Attrs: mustprogress nounwind uwtable
define internal void @_ZZN43ostream_test_write_to_ostream_max_size_Test8TestBodyEvEN12test_ostreamD2Ev(ptr noundef nonnull align 8 dereferenceable(8) %this, ptr noundef %vtt) unnamed_addr #5 align 2 {
entry:
  %this.addr = alloca ptr, align 8
  %vtt.addr = alloca ptr, align 8
  store ptr %this, ptr %this.addr, align 8
  store ptr %vtt, ptr %vtt.addr, align 8
  %this1 = load ptr, ptr %this.addr, align 8
  %vtt2 = load ptr, ptr %vtt.addr, align 8
  %0 = getelementptr inbounds ptr, ptr %vtt2, i64 1
  call void @_ZNSoD2Ev(ptr noundef nonnull align 8 dereferenceable(8) %this1, ptr noundef %0) #3
  ret void
}

; Function Attrs: mustprogress nounwind uwtable
define internal void @_ZZN43ostream_test_write_to_ostream_max_size_Test8TestBodyEvEN12test_ostreamD1Ev(ptr noundef nonnull align 8 dereferenceable(8) %this) unnamed_addr #5 align 2 {
entry:
  %this.addr = alloca ptr, align 8
  store ptr %this, ptr %this.addr, align 8
  %this1 = load ptr, ptr %this.addr, align 8
  call void @_ZZN43ostream_test_write_to_ostream_max_size_Test8TestBodyEvEN12test_ostreamD2Ev(ptr noundef nonnull align 8 dereferenceable(8) %this1, ptr noundef @_ZTTZN43ostream_test_write_to_ostream_max_size_Test8TestBodyEvE12test_ostream) #3
  %0 = getelementptr inbounds i8, ptr %this1, i64 8
  call void @_ZNSt9basic_iosIcSt11char_traitsIcEED2Ev(ptr noundef nonnull align 8 dereferenceable(264) %0) #3
  ret void
}

; Function Attrs: mustprogress nounwind uwtable
define internal void @_ZZN43ostream_test_write_to_ostream_max_size_Test8TestBodyEvEN12test_ostreamD0Ev(ptr noundef nonnull align 8 dereferenceable(8) %this) unnamed_addr #5 align 2 {
entry:
  %this.addr = alloca ptr, align 8
  store ptr %this, ptr %this.addr, align 8
  %this1 = load ptr, ptr %this.addr, align 8
  call void @_ZZN43ostream_test_write_to_ostream_max_size_Test8TestBodyEvEN12test_ostreamD1Ev(ptr noundef nonnull align 8 dereferenceable(8) %this1) #3
  call void @_ZdlPv(ptr noundef %this1) #23
  ret void
}

; Function Attrs: nounwind uwtable
define internal void @_ZTv0_n24_ZN43ostream_test_write_to_ostream_max_size_Test8TestBodyEvEN12test_ostreamD0Ev(ptr noundef %this) unnamed_addr #17 align 2 {
entry:
  %this.addr = alloca ptr, align 8
  store ptr %this, ptr %this.addr, align 8
  %this1 = load ptr, ptr %this.addr, align 8
  %0 = load ptr, ptr %this1, align 8
  %1 = getelementptr inbounds i8, ptr %0, i64 -24
  %2 = load i64, ptr %1, align 8
  %3 = getelementptr inbounds i8, ptr %this1, i64 %2
  tail call void @_ZZN43ostream_test_write_to_ostream_max_size_Test8TestBodyEvEN12test_ostreamD0Ev(ptr noundef nonnull align 8 dereferenceable(8) %3) #3
  ret void
}