; Function Attrs: nounwind uwtable
define internal void @_ZTv0_n24_ZN43ostream_test_write_to_ostream_max_size_Test8TestBodyEvEN12test_ostreamD0Ev(ptr noundef %this) unnamed_addr #17 align 2 {
entry:
  %0 = load ptr, ptr %this, align 8
  %1 = getelementptr inbounds i8, ptr %0, i64 -24
  %2 = load i64, ptr %1, align 8
  %3 = getelementptr inbounds i8, ptr %this, i64 %2
  tail call void @_ZNSoD2Ev(ptr noundef nonnull align 8 dereferenceable(8) %3, ptr noundef nonnull getelementptr inbounds ([4 x ptr], ptr @_ZTTZN43ostream_test_write_to_ostream_max_size_Test8TestBodyEvE12test_ostream, i64 0, i64 1)) #25
  %4 = getelementptr inbounds i8, ptr %3, i64 8
  tail call void @_ZNSt9basic_iosIcSt11char_traitsIcEED2Ev(ptr noundef nonnull align 8 dereferenceable(264) %4) #25
  tail call void @_ZdlPv(ptr noundef nonnull %3) #26
  ret void
}